target datalayout = "e-m:e-p270:32:32-p271:32:32-p272:64:64-i64:64-i128:128-f80:128-n8:16:32:64-S128"
target triple = "x86_64-pc-linux-gnu"

%"struct.std::_Rb_tree_header" = type { %"struct.std::_Rb_tree_node_base", i64 }
%"struct.std::_Rb_tree_node_base" = type { i32, ptr, ptr, ptr }
%"class.pxrInternal_v0_24__pxrReserved__::PcpLifeboat" = type { %"class.std::set.1", %"class.std::set.7" }
%"class.std::set.1" = type { %"class.std::_Rb_tree.2" }
%"class.std::_Rb_tree.2" = type { %"struct.std::_Rb_tree<pxrInternal_v0_24__pxrReserved__::TfRefPtr<pxrInternal_v0_24__pxrReserved__::SdfLayer>, pxrInternal_v0_24__pxrReserved__::TfRefPtr<pxrInternal_v0_24__pxrReserved__::SdfLayer>, std::_Identity<pxrInternal_v0_24__pxrReserved__::TfRefPtr<pxrInternal_v0_24__pxrReserved__::SdfLayer>>, std::less<pxrInternal_v0_24__pxrReserved__::TfRefPtr<pxrInternal_v0_24__pxrReserved__::SdfLayer>>>::_Rb_tree_impl" }
%"struct.std::_Rb_tree<pxrInternal_v0_24__pxrReserved__::TfRefPtr<pxrInternal_v0_24__pxrReserved__::SdfLayer>, pxrInternal_v0_24__pxrReserved__::TfRefPtr<pxrInternal_v0_24__pxrReserved__::SdfLayer>, std::_Identity<pxrInternal_v0_24__pxrReserved__::TfRefPtr<pxrInternal_v0_24__pxrReserved__::SdfLayer>>, std::less<pxrInternal_v0_24__pxrReserved__::TfRefPtr<pxrInternal_v0_24__pxrReserved__::SdfLayer>>>::_Rb_tree_impl" = type { [8 x i8], %"struct.std::_Rb_tree_header" }
%"class.std::set.7" = type { %"class.std::_Rb_tree.8" }
%"class.std::_Rb_tree.8" = type { %"struct.std::_Rb_tree<pxrInternal_v0_24__pxrReserved__::TfRefPtr<pxrInternal_v0_24__pxrReserved__::PcpLayerStack>, pxrInternal_v0_24__pxrReserved__::TfRefPtr<pxrInternal_v0_24__pxrReserved__::PcpLayerStack>, std::_Identity<pxrInternal_v0_24__pxrReserved__::TfRefPtr<pxrInternal_v0_24__pxrReserved__::PcpLayerStack>>, std::less<pxrInternal_v0_24__pxrReserved__::TfRefPtr<pxrInternal_v0_24__pxrReserved__::PcpLayerStack>>>::_Rb_tree_impl" }
%"struct.std::_Rb_tree<pxrInternal_v0_24__pxrReserved__::TfRefPtr<pxrInternal_v0_24__pxrReserved__::PcpLayerStack>, pxrInternal_v0_24__pxrReserved__::TfRefPtr<pxrInternal_v0_24__pxrReserved__::PcpLayerStack>, std::_Identity<pxrInternal_v0_24__pxrReserved__::TfRefPtr<pxrInternal_v0_24__pxrReserved__::PcpLayerStack>>, std::less<pxrInternal_v0_24__pxrReserved__::TfRefPtr<pxrInternal_v0_24__pxrReserved__::PcpLayerStack>>>::_Rb_tree_impl" = type { [8 x i8], %"struct.std::_Rb_tree_header" }
%"class.pxrInternal_v0_24__pxrReserved__::PcpChanges" = type { %"class.std::map", %"class.std::map.24", %"class.std::map.30", %"class.pxrInternal_v0_24__pxrReserved__::PcpLifeboat" }
%"class.std::map" = type { %"class.std::_Rb_tree.19" }
%"class.std::_Rb_tree.19" = type { %"struct.std::_Rb_tree<pxrInternal_v0_24__pxrReserved__::TfWeakPtr<pxrInternal_v0_24__pxrReserved__::PcpLayerStack>, std::pair<const pxrInternal_v0_24__pxrReserved__::TfWeakPtr<pxrInternal_v0_24__pxrReserved__::PcpLayerStack>, pxrInternal_v0_24__pxrReserved__::PcpLayerStackChanges>, std::_Select1st<std::pair<const pxrInternal_v0_24__pxrReserved__::TfWeakPtr<pxrInternal_v0_24__pxrReserved__::PcpLayerStack>, pxrInternal_v0_24__pxrReserved__::PcpLayerStackChanges>>, std::less<pxrInternal_v0_24__pxrReserved__::TfWeakPtr<pxrInternal_v0_24__pxrReserved__::PcpLayerStack>>>::_Rb_tree_impl" }
%"struct.std::_Rb_tree<pxrInternal_v0_24__pxrReserved__::TfWeakPtr<pxrInternal_v0_24__pxrReserved__::PcpLayerStack>, std::pair<const pxrInternal_v0_24__pxrReserved__::TfWeakPtr<pxrInternal_v0_24__pxrReserved__::PcpLayerStack>, pxrInternal_v0_24__pxrReserved__::PcpLayerStackChanges>, std::_Select1st<std::pair<const pxrInternal_v0_24__pxrReserved__::TfWeakPtr<pxrInternal_v0_24__pxrReserved__::PcpLayerStack>, pxrInternal_v0_24__pxrReserved__::PcpLayerStackChanges>>, std::less<pxrInternal_v0_24__pxrReserved__::TfWeakPtr<pxrInternal_v0_24__pxrReserved__::PcpLayerStack>>>::_Rb_tree_impl" = type { [8 x i8], %"struct.std::_Rb_tree_header" }
%"class.std::map.24" = type { %"class.std::_Rb_tree.25" }
%"class.std::_Rb_tree.25" = type { %"struct.std::_Rb_tree<pxrInternal_v0_24__pxrReserved__::PcpCache *, std::pair<pxrInternal_v0_24__pxrReserved__::PcpCache *const, pxrInternal_v0_24__pxrReserved__::PcpCacheChanges>, std::_Select1st<std::pair<pxrInternal_v0_24__pxrReserved__::PcpCache *const, pxrInternal_v0_24__pxrReserved__::PcpCacheChanges>>, std::less<pxrInternal_v0_24__pxrReserved__::PcpCache *>>::_Rb_tree_impl" }
%"struct.std::_Rb_tree<pxrInternal_v0_24__pxrReserved__::PcpCache *, std::pair<pxrInternal_v0_24__pxrReserved__::PcpCache *const, pxrInternal_v0_24__pxrReserved__::PcpCacheChanges>, std::_Select1st<std::pair<pxrInternal_v0_24__pxrReserved__::PcpCache *const, pxrInternal_v0_24__pxrReserved__::PcpCacheChanges>>, std::less<pxrInternal_v0_24__pxrReserved__::PcpCache *>>::_Rb_tree_impl" = type { [8 x i8], %"struct.std::_Rb_tree_header" }
%"class.std::map.30" = type { %"class.std::_Rb_tree.31" }
%"class.std::_Rb_tree.31" = type { %"struct.std::_Rb_tree<pxrInternal_v0_24__pxrReserved__::PcpCache *, std::pair<pxrInternal_v0_24__pxrReserved__::PcpCache *const, std::map<pxrInternal_v0_24__pxrReserved__::SdfPath, pxrInternal_v0_24__pxrReserved__::SdfPath>>, std::_Select1st<std::pair<pxrInternal_v0_24__pxrReserved__::PcpCache *const, std::map<pxrInternal_v0_24__pxrReserved__::SdfPath, pxrInternal_v0_24__pxrReserved__::SdfPath>>>, std::less<pxrInternal_v0_24__pxrReserved__::PcpCache *>>::_Rb_tree_impl" }
%"struct.std::_Rb_tree<pxrInternal_v0_24__pxrReserved__::PcpCache *, std::pair<pxrInternal_v0_24__pxrReserved__::PcpCache *const, std::map<pxrInternal_v0_24__pxrReserved__::SdfPath, pxrInternal_v0_24__pxrReserved__::SdfPath>>, std::_Select1st<std::pair<pxrInternal_v0_24__pxrReserved__::PcpCache *const, std::map<pxrInternal_v0_24__pxrReserved__::SdfPath, pxrInternal_v0_24__pxrReserved__::SdfPath>>>, std::less<pxrInternal_v0_24__pxrReserved__::PcpCache *>>::_Rb_tree_impl" = type { [8 x i8], %"struct.std::_Rb_tree_header" }

@_ZN32pxrInternal_v0_24__pxrReserved__11PcpLifeboatC1Ev = unnamed_addr alias void (ptr), ptr @_ZN32pxrInternal_v0_24__pxrReserved__11PcpLifeboatC2Ev

; Function Attrs: mustprogress nounwind uwtable
define linkonce_odr void @_ZNSt15__new_allocatorISt13_Rb_tree_nodeISt4pairIKPN32pxrInternal_v0_24__pxrReserved__8PcpCacheESt3mapINS2_7SdfPathES7_St4lessIS7_ESaIS1_IKS7_S7_EEEEEEC2Ev(ptr noundef nonnull align 1 dereferenceable(1) %0) unnamed_addr #2 comdat align 2 {
  %2 = alloca ptr, align 8
  store ptr %0, ptr %2, align 8
  ret void
}

; Function Attrs: mustprogress nounwind uwtable
define linkonce_odr void @_ZNSt15__new_allocatorISt13_Rb_tree_nodeISt4pairIKPN32pxrInternal_v0_24__pxrReserved__8PcpCacheENS2_15PcpCacheChangesEEEEC2Ev(ptr noundef nonnull align 1 dereferenceable(1) %0) unnamed_addr #2 comdat align 2 {
  %2 = alloca ptr, align 8
  store ptr %0, ptr %2, align 8
  ret void
}

; Function Attrs: noreturn nounwind uwtable
define linkonce_odr hidden void @__clang_call_terminate(ptr noundef %0) #6 comdat {
  %2 = call ptr @__cxa_begin_catch(ptr %0) #13
  call void @_ZSt9terminatev() #14
  unreachable
}

; Function Attrs: mustprogress nounwind uwtable
define linkonce_odr void @_ZNSt15_Rb_tree_header8_M_resetEv(ptr noundef nonnull align 8 dereferenceable(40) %0) #2 comdat align 2 {
  %2 = alloca ptr, align 8
  store ptr %0, ptr %2, align 8
  %3 = load ptr, ptr %2, align 8
  %4 = getelementptr inbounds nuw %"struct.std::_Rb_tree_header", ptr %3, i32 0, i32 0
  %5 = getelementptr inbounds nuw %"struct.std::_Rb_tree_node_base", ptr %4, i32 0, i32 1
  store ptr null, ptr %5, align 8
  %6 = getelementptr inbounds nuw %"struct.std::_Rb_tree_header", ptr %3, i32 0, i32 0
  %7 = getelementptr inbounds nuw %"struct.std::_Rb_tree_header", ptr %3, i32 0, i32 0
  %8 = getelementptr inbounds nuw %"struct.std::_Rb_tree_node_base", ptr %7, i32 0, i32 2
  store ptr %6, ptr %8, align 8
  %9 = getelementptr inbounds nuw %"struct.std::_Rb_tree_header", ptr %3, i32 0, i32 0
  %10 = getelementptr inbounds nuw %"struct.std::_Rb_tree_header", ptr %3, i32 0, i32 0
  %11 = getelementptr inbounds nuw %"struct.std::_Rb_tree_node_base", ptr %10, i32 0, i32 3
  store ptr %9, ptr %11, align 8
  %12 = getelementptr inbounds nuw %"struct.std::_Rb_tree_header", ptr %3, i32 0, i32 1
  store i64 0, ptr %12, align 8
  ret void
}

; Function Attrs: mustprogress nounwind uwtable
define linkonce_odr void @_ZNSt15__new_allocatorISt13_Rb_tree_nodeISt4pairIKN32pxrInternal_v0_24__pxrReserved__9TfWeakPtrINS2_13PcpLayerStackEEENS2_20PcpLayerStackChangesEEEEC2Ev(ptr noundef nonnull align 1 dereferenceable(1) %0) unnamed_addr #2 comdat align 2 {
  %2 = alloca ptr, align 8
  store ptr %0, ptr %2, align 8
  ret void
}

; Function Attrs: mustprogress nounwind uwtable
define linkonce_odr void @_ZNSaISt13_Rb_tree_nodeISt4pairIKPN32pxrInternal_v0_24__pxrReserved__8PcpCacheESt3mapINS1_7SdfPathES6_St4lessIS6_ESaIS0_IKS6_S6_EEEEEEC2Ev(ptr noundef nonnull align 1 dereferenceable(1) %0) unnamed_addr #2 comdat align 2 {
  %2 = alloca ptr, align 8
  store ptr %0, ptr %2, align 8
  %3 = load ptr, ptr %2, align 8
  call void @_ZNSt15__new_allocatorISt13_Rb_tree_nodeISt4pairIKPN32pxrInternal_v0_24__pxrReserved__8PcpCacheESt3mapINS2_7SdfPathES7_St4lessIS7_ESaIS1_IKS7_S7_EEEEEEC2Ev(ptr noundef nonnull align 1 dereferenceable(1) %3) #13
  ret void
}

; Function Attrs: mustprogress nounwind uwtable
define linkonce_odr void @_ZNSt20_Rb_tree_key_compareISt4lessIPN32pxrInternal_v0_24__pxrReserved__8PcpCacheEEEC2Ev(ptr noundef nonnull align 1 dereferenceable(1) %0) unnamed_addr #2 comdat align 2 {
  %2 = alloca ptr, align 8
  store ptr %0, ptr %2, align 8
  ret void
}

; Function Attrs: mustprogress nounwind uwtable
define linkonce_odr void @_ZNSaISt13_Rb_tree_nodeISt4pairIKPN32pxrInternal_v0_24__pxrReserved__8PcpCacheENS1_15PcpCacheChangesEEEEC2Ev(ptr noundef nonnull align 1 dereferenceable(1) %0) unnamed_addr #2 comdat align 2 {
  %2 = alloca ptr, align 8
  store ptr %0, ptr %2, align 8
  %3 = load ptr, ptr %2, align 8
  call void @_ZNSt15__new_allocatorISt13_Rb_tree_nodeISt4pairIKPN32pxrInternal_v0_24__pxrReserved__8PcpCacheENS2_15PcpCacheChangesEEEEC2Ev(ptr noundef nonnull align 1 dereferenceable(1) %3) #13
  ret void
}

; Function Attrs: mustprogress nounwind uwtable
define linkonce_odr void @_ZNSt15_Rb_tree_headerC2Ev(ptr noundef nonnull align 8 dereferenceable(40) %0) unnamed_addr #2 comdat align 2 personality ptr @__gxx_personality_v0 {
  %2 = alloca ptr, align 8
  store ptr %0, ptr %2, align 8
  %3 = load ptr, ptr %2, align 8
  %4 = getelementptr inbounds nuw %"struct.std::_Rb_tree_header", ptr %3, i32 0, i32 0
  %5 = getelementptr inbounds nuw %"struct.std::_Rb_tree_node_base", ptr %4, i32 0, i32 0
  store i32 0, ptr %5, align 8
  invoke void @_ZNSt15_Rb_tree_header8_M_resetEv(ptr noundef nonnull align 8 dereferenceable(40) %3)
          to label %6 unwind label %7

6:                                                ; preds = %1
  ret void

7:                                                ; preds = %1
  %8 = landingpad { ptr, i32 }
          catch ptr null
  %9 = extractvalue { ptr, i32 } %8, 0
  call void @__clang_call_terminate(ptr %9) #14
  unreachable
}

; Function Attrs: mustprogress nounwind uwtable
define linkonce_odr void @_ZNSt20_Rb_tree_key_compareISt4lessIN32pxrInternal_v0_24__pxrReserved__9TfWeakPtrINS1_13PcpLayerStackEEEEEC2Ev(ptr noundef nonnull align 1 dereferenceable(1) %0) unnamed_addr #2 comdat align 2 {
  %2 = alloca ptr, align 8
  store ptr %0, ptr %2, align 8
  ret void
}

; Function Attrs: mustprogress nounwind uwtable
define linkonce_odr void @_ZNSaISt13_Rb_tree_nodeISt4pairIKN32pxrInternal_v0_24__pxrReserved__9TfWeakPtrINS1_13PcpLayerStackEEENS1_20PcpLayerStackChangesEEEEC2Ev(ptr noundef nonnull align 1 dereferenceable(1) %0) unnamed_addr #2 comdat align 2 {
  %2 = alloca ptr, align 8
  store ptr %0, ptr %2, align 8
  %3 = load ptr, ptr %2, align 8
  call void @_ZNSt15__new_allocatorISt13_Rb_tree_nodeISt4pairIKN32pxrInternal_v0_24__pxrReserved__9TfWeakPtrINS2_13PcpLayerStackEEENS2_20PcpLayerStackChangesEEEEC2Ev(ptr noundef nonnull align 1 dereferenceable(1) %3) #13
  ret void
}

; Function Attrs: mustprogress nounwind uwtable
define linkonce_odr void @_ZNSt8_Rb_treeIPN32pxrInternal_v0_24__pxrReserved__8PcpCacheESt4pairIKS2_St3mapINS0_7SdfPathES6_St4lessIS6_ESaIS3_IKS6_S6_EEEESt10_Select1stISD_ES7_IS2_ESaISD_EE13_Rb_tree_implISG_Lb1EEC2Ev(ptr noundef nonnull align 8 dereferenceable(48) %0) unnamed_addr #2 comdat align 2 {
  %2 = alloca ptr, align 8
  store ptr %0, ptr %2, align 8
  %3 = load ptr, ptr %2, align 8
  call void @_ZNSaISt13_Rb_tree_nodeISt4pairIKPN32pxrInternal_v0_24__pxrReserved__8PcpCacheESt3mapINS1_7SdfPathES6_St4lessIS6_ESaIS0_IKS6_S6_EEEEEEC2Ev(ptr noundef nonnull align 1 dereferenceable(1) %3) #13
  call void @_ZNSt20_Rb_tree_key_compareISt4lessIPN32pxrInternal_v0_24__pxrReserved__8PcpCacheEEEC2Ev(ptr noundef nonnull align 1 dereferenceable(1) %3) #13
  %4 = getelementptr inbounds i8, ptr %3, i64 8
  call void @_ZNSt15_Rb_tree_headerC2Ev(ptr noundef nonnull align 8 dereferenceable(40) %4) #13
  ret void
}

; Function Attrs: mustprogress nounwind uwtable
define linkonce_odr void @_ZNSt8_Rb_treeIPN32pxrInternal_v0_24__pxrReserved__8PcpCacheESt4pairIKS2_NS0_15PcpCacheChangesEESt10_Select1stIS6_ESt4lessIS2_ESaIS6_EE13_Rb_tree_implISA_Lb1EEC2Ev(ptr noundef nonnull align 8 dereferenceable(48) %0) unnamed_addr #2 comdat align 2 {
  %2 = alloca ptr, align 8
  store ptr %0, ptr %2, align 8
  %3 = load ptr, ptr %2, align 8
  call void @_ZNSaISt13_Rb_tree_nodeISt4pairIKPN32pxrInternal_v0_24__pxrReserved__8PcpCacheENS1_15PcpCacheChangesEEEEC2Ev(ptr noundef nonnull align 1 dereferenceable(1) %3) #13
  call void @_ZNSt20_Rb_tree_key_compareISt4lessIPN32pxrInternal_v0_24__pxrReserved__8PcpCacheEEEC2Ev(ptr noundef nonnull align 1 dereferenceable(1) %3) #13
  %4 = getelementptr inbounds i8, ptr %3, i64 8
  call void @_ZNSt15_Rb_tree_headerC2Ev(ptr noundef nonnull align 8 dereferenceable(40) %4) #13
  ret void
}

; Function Attrs: mustprogress nounwind uwtable
define linkonce_odr void @_ZNSt8_Rb_treeIN32pxrInternal_v0_24__pxrReserved__9TfWeakPtrINS0_13PcpLayerStackEEESt4pairIKS3_NS0_20PcpLayerStackChangesEESt10_Select1stIS7_ESt4lessIS3_ESaIS7_EE13_Rb_tree_implISB_Lb1EEC2Ev(ptr noundef nonnull align 8 dereferenceable(48) %0) unnamed_addr #2 comdat align 2 {
  %2 = alloca ptr, align 8
  store ptr %0, ptr %2, align 8
  %3 = load ptr, ptr %2, align 8
  call void @_ZNSaISt13_Rb_tree_nodeISt4pairIKN32pxrInternal_v0_24__pxrReserved__9TfWeakPtrINS1_13PcpLayerStackEEENS1_20PcpLayerStackChangesEEEEC2Ev(ptr noundef nonnull align 1 dereferenceable(1) %3) #13
  call void @_ZNSt20_Rb_tree_key_compareISt4lessIN32pxrInternal_v0_24__pxrReserved__9TfWeakPtrINS1_13PcpLayerStackEEEEEC2Ev(ptr noundef nonnull align 1 dereferenceable(1) %3) #13
  %4 = getelementptr inbounds i8, ptr %3, i64 8
  call void @_ZNSt15_Rb_tree_headerC2Ev(ptr noundef nonnull align 8 dereferenceable(40) %4) #13
  ret void
}

; Function Attrs: mustprogress nounwind uwtable
define linkonce_odr void @_ZNSt8_Rb_treeIPN32pxrInternal_v0_24__pxrReserved__8PcpCacheESt4pairIKS2_St3mapINS0_7SdfPathES6_St4lessIS6_ESaIS3_IKS6_S6_EEEESt10_Select1stISD_ES7_IS2_ESaISD_EEC2Ev(ptr noundef nonnull align 8 dereferenceable(48) %0) unnamed_addr #2 comdat align 2 {
  %2 = alloca ptr, align 8
  store ptr %0, ptr %2, align 8
  %3 = load ptr, ptr %2, align 8
  %4 = getelementptr inbounds nuw %"class.std::_Rb_tree.31", ptr %3, i32 0, i32 0
  call void @_ZNSt8_Rb_treeIPN32pxrInternal_v0_24__pxrReserved__8PcpCacheESt4pairIKS2_St3mapINS0_7SdfPathES6_St4lessIS6_ESaIS3_IKS6_S6_EEEESt10_Select1stISD_ES7_IS2_ESaISD_EE13_Rb_tree_implISG_Lb1EEC2Ev(ptr noundef nonnull align 8 dereferenceable(48) %4) #13
  ret void
}

; Function Attrs: mustprogress nounwind uwtable
define linkonce_odr void @_ZNSt8_Rb_treeIPN32pxrInternal_v0_24__pxrReserved__8PcpCacheESt4pairIKS2_NS0_15PcpCacheChangesEESt10_Select1stIS6_ESt4lessIS2_ESaIS6_EEC2Ev(ptr noundef nonnull align 8 dereferenceable(48) %0) unnamed_addr #2 comdat align 2 {
  %2 = alloca ptr, align 8
  store ptr %0, ptr %2, align 8
  %3 = load ptr, ptr %2, align 8
  %4 = getelementptr inbounds nuw %"class.std::_Rb_tree.25", ptr %3, i32 0, i32 0
  call void @_ZNSt8_Rb_treeIPN32pxrInternal_v0_24__pxrReserved__8PcpCacheESt4pairIKS2_NS0_15PcpCacheChangesEESt10_Select1stIS6_ESt4lessIS2_ESaIS6_EE13_Rb_tree_implISA_Lb1EEC2Ev(ptr noundef nonnull align 8 dereferenceable(48) %4) #13
  ret void
}

; Function Attrs: mustprogress nounwind uwtable
define linkonce_odr void @_ZNSt8_Rb_treeIN32pxrInternal_v0_24__pxrReserved__9TfWeakPtrINS0_13PcpLayerStackEEESt4pairIKS3_NS0_20PcpLayerStackChangesEESt10_Select1stIS7_ESt4lessIS3_ESaIS7_EEC2Ev(ptr noundef nonnull align 8 dereferenceable(48) %0) unnamed_addr #2 comdat align 2 {
  %2 = alloca ptr, align 8
  store ptr %0, ptr %2, align 8
  %3 = load ptr, ptr %2, align 8
  %4 = getelementptr inbounds nuw %"class.std::_Rb_tree.19", ptr %3, i32 0, i32 0
  call void @_ZNSt8_Rb_treeIN32pxrInternal_v0_24__pxrReserved__9TfWeakPtrINS0_13PcpLayerStackEEESt4pairIKS3_NS0_20PcpLayerStackChangesEESt10_Select1stIS7_ESt4lessIS3_ESaIS7_EE13_Rb_tree_implISB_Lb1EEC2Ev(ptr noundef nonnull align 8 dereferenceable(48) %4) #13
  ret void
}

; Function Attrs: mustprogress nounwind uwtable
define linkonce_odr void @_ZNSt3mapIPN32pxrInternal_v0_24__pxrReserved__8PcpCacheES_INS0_7SdfPathES3_St4lessIS3_ESaISt4pairIKS3_S3_EEES4_IS2_ESaIS6_IKS2_SA_EEEC2Ev(ptr noundef nonnull align 8 dereferenceable(48) %0) unnamed_addr #2 comdat align 2 {
  %2 = alloca ptr, align 8
  store ptr %0, ptr %2, align 8
  %3 = load ptr, ptr %2, align 8
  %4 = getelementptr inbounds nuw %"class.std::map.30", ptr %3, i32 0, i32 0
  call void @_ZNSt8_Rb_treeIPN32pxrInternal_v0_24__pxrReserved__8PcpCacheESt4pairIKS2_St3mapINS0_7SdfPathES6_St4lessIS6_ESaIS3_IKS6_S6_EEEESt10_Select1stISD_ES7_IS2_ESaISD_EEC2Ev(ptr noundef nonnull align 8 dereferenceable(48) %4) #13
  ret void
}

; Function Attrs: mustprogress nounwind uwtable
define linkonce_odr void @_ZNSt3mapIPN32pxrInternal_v0_24__pxrReserved__8PcpCacheENS0_15PcpCacheChangesESt4lessIS2_ESaISt4pairIKS2_S3_EEEC2Ev(ptr noundef nonnull align 8 dereferenceable(48) %0) unnamed_addr #2 comdat align 2 {
  %2 = alloca ptr, align 8
  store ptr %0, ptr %2, align 8
  %3 = load ptr, ptr %2, align 8
  %4 = getelementptr inbounds nuw %"class.std::map.24", ptr %3, i32 0, i32 0
  call void @_ZNSt8_Rb_treeIPN32pxrInternal_v0_24__pxrReserved__8PcpCacheESt4pairIKS2_NS0_15PcpCacheChangesEESt10_Select1stIS6_ESt4lessIS2_ESaIS6_EEC2Ev(ptr noundef nonnull align 8 dereferenceable(48) %4) #13
  ret void
}

; Function Attrs: mustprogress nounwind uwtable
define linkonce_odr void @_ZNSt3mapIN32pxrInternal_v0_24__pxrReserved__9TfWeakPtrINS0_13PcpLayerStackEEENS0_20PcpLayerStackChangesESt4lessIS3_ESaISt4pairIKS3_S4_EEEC2Ev(ptr noundef nonnull align 8 dereferenceable(48) %0) unnamed_addr #2 comdat align 2 {
  %2 = alloca ptr, align 8
  store ptr %0, ptr %2, align 8
  %3 = load ptr, ptr %2, align 8
  %4 = getelementptr inbounds nuw %"class.std::map", ptr %3, i32 0, i32 0
  call void @_ZNSt8_Rb_treeIN32pxrInternal_v0_24__pxrReserved__9TfWeakPtrINS0_13PcpLayerStackEEESt4pairIKS3_NS0_20PcpLayerStackChangesEESt10_Select1stIS7_ESt4lessIS3_ESaIS7_EEC2Ev(ptr noundef nonnull align 8 dereferenceable(48) %4) #13
  ret void
}

; Function Attrs: mustprogress uwtable
define void @_ZN32pxrInternal_v0_24__pxrReserved__10PcpChangesC2Ev(ptr noundef nonnull align 8 dereferenceable(240) %0) unnamed_addr #0 align 2 personality ptr @__gxx_personality_v0 {
  %2 = alloca ptr, align 8
  %3 = alloca ptr, align 8
  %4 = alloca i32, align 4
  store ptr %0, ptr %2, align 8
  %5 = load ptr, ptr %2, align 8
  %6 = getelementptr inbounds nuw %"class.pxrInternal_v0_24__pxrReserved__::PcpChanges", ptr %5, i32 0, i32 0
  call void @_ZNSt3mapIN32pxrInternal_v0_24__pxrReserved__9TfWeakPtrINS0_13PcpLayerStackEEENS0_20PcpLayerStackChangesESt4lessIS3_ESaISt4pairIKS3_S4_EEEC2Ev(ptr noundef nonnull align 8 dereferenceable(48) %6) #13
  %7 = getelementptr inbounds nuw %"class.pxrInternal_v0_24__pxrReserved__::PcpChanges", ptr %5, i32 0, i32 1
  call void @_ZNSt3mapIPN32pxrInternal_v0_24__pxrReserved__8PcpCacheENS0_15PcpCacheChangesESt4lessIS2_ESaISt4pairIKS2_S3_EEEC2Ev(ptr noundef nonnull align 8 dereferenceable(48) %7) #13
  %8 = getelementptr inbounds nuw %"class.pxrInternal_v0_24__pxrReserved__::PcpChanges", ptr %5, i32 0, i32 2
  call void @_ZNSt3mapIPN32pxrInternal_v0_24__pxrReserved__8PcpCacheES_INS0_7SdfPathES3_St4lessIS3_ESaISt4pairIKS3_S3_EEES4_IS2_ESaIS6_IKS2_SA_EEEC2Ev(ptr noundef nonnull align 8 dereferenceable(48) %8) #13
  %9 = getelementptr inbounds nuw %"class.pxrInternal_v0_24__pxrReserved__::PcpChanges", ptr %5, i32 0, i32 3
  invoke void @_ZN32pxrInternal_v0_24__pxrReserved__11PcpLifeboatC1Ev(ptr noundef nonnull align 8 dereferenceable(96) %9)
          to label %10 unwind label %11

10:                                               ; preds = %1
  ret void

11:                                               ; preds = %1
  %12 = landingpad { ptr, i32 }
          cleanup
  %13 = extractvalue { ptr, i32 } %12, 0
  store ptr %13, ptr %3, align 8
  %14 = extractvalue { ptr, i32 } %12, 1
  store i32 %14, ptr %4, align 4
  call void @_ZNSt3mapIPN32pxrInternal_v0_24__pxrReserved__8PcpCacheES_INS0_7SdfPathES3_St4lessIS3_ESaISt4pairIKS3_S3_EEES4_IS2_ESaIS6_IKS2_SA_EEED2Ev(ptr noundef nonnull align 8 dereferenceable(48) %8) #13
  call void @_ZNSt3mapIPN32pxrInternal_v0_24__pxrReserved__8PcpCacheENS0_15PcpCacheChangesESt4lessIS2_ESaISt4pairIKS2_S3_EEED2Ev(ptr noundef nonnull align 8 dereferenceable(48) %7) #13
  call void @_ZNSt3mapIN32pxrInternal_v0_24__pxrReserved__9TfWeakPtrINS0_13PcpLayerStackEEENS0_20PcpLayerStackChangesESt4lessIS3_ESaISt4pairIKS3_S4_EEED2Ev(ptr noundef nonnull align 8 dereferenceable(48) %6) #13
  br label %15

15:                                               ; preds = %11
  %16 = load ptr, ptr %3, align 8
  %17 = load i32, ptr %4, align 4
  %18 = insertvalue { ptr, i32 } poison, ptr %16, 0
  %19 = insertvalue { ptr, i32 } %18, i32 %17, 1
  resume { ptr, i32 } %19
}