; Function Attrs: mustprogress uwtable
define void @_ZN32pxrInternal_v0_24__pxrReserved__10PcpChangesC2Ev(ptr noundef nonnull align 8 dereferenceable(240) %0) unnamed_addr #0 align 2 personality ptr @__gxx_personality_v0 {
  %2 = getelementptr inbounds i8, ptr %0, i64 8
  store i32 0, ptr %2, align 8
  %3 = getelementptr inbounds i8, ptr %0, i64 16
  store ptr null, ptr %3, align 8
  %4 = getelementptr inbounds i8, ptr %0, i64 24
  store ptr %2, ptr %4, align 8
  %5 = getelementptr inbounds i8, ptr %0, i64 32
  store ptr %2, ptr %5, align 8
  %6 = getelementptr inbounds i8, ptr %0, i64 40
  store i64 0, ptr %6, align 8
  %7 = getelementptr inbounds i8, ptr %0, i64 56
  store i32 0, ptr %7, align 8
  %8 = getelementptr inbounds i8, ptr %0, i64 64
  store ptr null, ptr %8, align 8
  %9 = getelementptr inbounds i8, ptr %0, i64 72
  store ptr %7, ptr %9, align 8
  %10 = getelementptr inbounds i8, ptr %0, i64 80
  store ptr %7, ptr %10, align 8
  %11 = getelementptr inbounds i8, ptr %0, i64 88
  store i64 0, ptr %11, align 8
  %12 = getelementptr inbounds i8, ptr %0, i64 104
  store i32 0, ptr %12, align 8
  %13 = getelementptr inbounds i8, ptr %0, i64 112
  store ptr null, ptr %13, align 8
  %14 = getelementptr inbounds i8, ptr %0, i64 120
  store ptr %12, ptr %14, align 8
  %15 = getelementptr inbounds i8, ptr %0, i64 128
  store ptr %12, ptr %15, align 8
  %16 = getelementptr inbounds i8, ptr %0, i64 136
  store i64 0, ptr %16, align 8
  %17 = getelementptr inbounds nuw i8, ptr %0, i64 144
  invoke void @_ZN32pxrInternal_v0_24__pxrReserved__11PcpLifeboatC1Ev(ptr noundef nonnull align 8 dereferenceable(96) %17)
          to label %18 unwind label %19

18:                                               ; preds = %1
  ret void

19:                                               ; preds = %1
  %20 = landingpad { ptr, i32 }
          cleanup
  %21 = getelementptr inbounds nuw i8, ptr %0, i64 96
  %22 = getelementptr inbounds nuw i8, ptr %0, i64 48
  tail call void @_ZNSt3mapIPN32pxrInternal_v0_24__pxrReserved__8PcpCacheES_INS0_7SdfPathES3_St4lessIS3_ESaISt4pairIKS3_S3_EEES4_IS2_ESaIS6_IKS2_SA_EEED2Ev(ptr noundef nonnull align 8 dereferenceable(48) %21) #25
  tail call void @_ZNSt3mapIPN32pxrInternal_v0_24__pxrReserved__8PcpCacheENS0_15PcpCacheChangesESt4lessIS2_ESaISt4pairIKS2_S3_EEED2Ev(ptr noundef nonnull align 8 dereferenceable(48) %22) #25
  tail call void @_ZNSt3mapIN32pxrInternal_v0_24__pxrReserved__9TfWeakPtrINS0_13PcpLayerStackEEENS0_20PcpLayerStackChangesESt4lessIS3_ESaISt4pairIKS3_S4_EEED2Ev(ptr noundef nonnull align 8 dereferenceable(48) %0) #25
  resume { ptr, i32 } %20
}